target datalayout = "e-m:e-p270:32:32-p271:32:32-p272:64:64-i64:64-i128:128-f80:128-n8:16:32:64-S128"
target triple = "x86_64-unknown-linux-gnu"

%"class.grpc_core::RefCount" = type { %"struct.std::atomic.270" }
%"struct.std::atomic.270" = type { %"struct.std::__atomic_base.271" }
%"struct.std::__atomic_base.271" = type { i64 }
%"class.grpc_core::InternallyRefCounted" = type { %"class.grpc_core::Orphanable", %"class.grpc_core::RefCount" }
%"class.grpc_core::Orphanable" = type { ptr }
%"class.grpc_core::DebugLocation" = type { i8 }
%"class.grpc_core::RefCountedPtr.454" = type { ptr }
%class.anon.671 = type { ptr }

@.str.90 = private unnamed_addr constant [144 x i8] c"generated/home/dtcxzyw/WorkSpace/Projects/compilers/llvm-opt-benchmark/bench/grpc/grpc/src/core/ext/filters/client_channel/lb_policy/rls/rls.cc\00", align 1
@.str.123 = private unnamed_addr constant [21 x i8] c"UpdatePickerCallback\00", align 1

; Function Attrs: mustprogress nounwind uwtable
define linkonce_odr noundef zeroext i1 @_ZN9grpc_core8RefCount5UnrefEv(ptr noundef nonnull align 8 dereferenceable(8) %this) #5 comdat align 2 {
entry:
  %this.addr.i = alloca ptr, align 8
  %__i.addr.i = alloca i64, align 8
  %__m.addr.i = alloca i32, align 4
  %.atomictmp.i = alloca i64, align 8
  %atomic-temp.i = alloca i64, align 8
  %this.addr = alloca ptr, align 8
  %prior = alloca i64, align 8
  store ptr %this, ptr %this.addr, align 8
  %this1 = load ptr, ptr %this.addr, align 8
  %value_ = getelementptr inbounds %"class.grpc_core::RefCount", ptr %this1, i32 0, i32 0
  store ptr %value_, ptr %this.addr.i, align 8
  store i64 1, ptr %__i.addr.i, align 8
  store i32 4, ptr %__m.addr.i, align 4
  %this1.i = load ptr, ptr %this.addr.i, align 8
  %0 = load i32, ptr %__m.addr.i, align 4
  %1 = load i64, ptr %__i.addr.i, align 8
  store i64 %1, ptr %.atomictmp.i, align 8
  switch i32 %0, label %monotonic.i [
    i32 1, label %acquire.i
    i32 2, label %acquire.i
    i32 3, label %release.i
    i32 4, label %acqrel.i
    i32 5, label %seqcst.i
  ]

monotonic.i:                                      ; preds = %entry
  %2 = load i64, ptr %.atomictmp.i, align 8
  %3 = atomicrmw sub ptr %this1.i, i64 %2 monotonic, align 8
  store i64 %3, ptr %atomic-temp.i, align 8
  br label %_ZNSt13__atomic_baseIlE9fetch_subElSt12memory_order.exit

acquire.i:                                        ; preds = %entry, %entry
  %4 = load i64, ptr %.atomictmp.i, align 8
  %5 = atomicrmw sub ptr %this1.i, i64 %4 acquire, align 8
  store i64 %5, ptr %atomic-temp.i, align 8
  br label %_ZNSt13__atomic_baseIlE9fetch_subElSt12memory_order.exit

release.i:                                        ; preds = %entry
  %6 = load i64, ptr %.atomictmp.i, align 8
  %7 = atomicrmw sub ptr %this1.i, i64 %6 release, align 8
  store i64 %7, ptr %atomic-temp.i, align 8
  br label %_ZNSt13__atomic_baseIlE9fetch_subElSt12memory_order.exit

acqrel.i:                                         ; preds = %entry
  %8 = load i64, ptr %.atomictmp.i, align 8
  %9 = atomicrmw sub ptr %this1.i, i64 %8 acq_rel, align 8
  store i64 %9, ptr %atomic-temp.i, align 8
  br label %_ZNSt13__atomic_baseIlE9fetch_subElSt12memory_order.exit

seqcst.i:                                         ; preds = %entry
  %10 = load i64, ptr %.atomictmp.i, align 8
  %11 = atomicrmw sub ptr %this1.i, i64 %10 seq_cst, align 8
  store i64 %11, ptr %atomic-temp.i, align 8
  br label %_ZNSt13__atomic_baseIlE9fetch_subElSt12memory_order.exit

_ZNSt13__atomic_baseIlE9fetch_subElSt12memory_order.exit: ; preds = %seqcst.i, %acqrel.i, %release.i, %acquire.i, %monotonic.i
  %12 = load i64, ptr %atomic-temp.i, align 8
  store i64 %12, ptr %prior, align 8
  %13 = load i64, ptr %prior, align 8
  %cmp = icmp eq i64 %13, 1
  ret i1 %cmp
}

; Function Attrs: mustprogress nounwind uwtable
define linkonce_odr void @_ZNK9grpc_core11UnrefDeleteclINS_19LoadBalancingPolicyEEEvPT_(ptr noundef nonnull align 1 dereferenceable(1) %this, ptr noundef %p) #5 comdat align 2 {
entry:
  %this.addr = alloca ptr, align 8
  %p.addr = alloca ptr, align 8
  store ptr %this, ptr %this.addr, align 8
  store ptr %p, ptr %p.addr, align 8
  %0 = load ptr, ptr %p.addr, align 8
  %isnull = icmp eq ptr %0, null
  br i1 %isnull, label %delete.end, label %delete.notnull

delete.notnull:                                   ; preds = %entry
  %vtable = load ptr, ptr %0, align 8
  %vfn = getelementptr inbounds ptr, ptr %vtable, i64 2
  %1 = load ptr, ptr %vfn, align 8
  call void %1(ptr noundef nonnull align 8 dereferenceable(56) %0) #3
  br label %delete.end

delete.end:                                       ; preds = %delete.notnull, %entry
  ret void
}

; Function Attrs: mustprogress nounwind uwtable
define linkonce_odr noundef zeroext i1 @_ZN9grpc_core8RefCount5UnrefERKNS_13DebugLocationEPKc(ptr noundef nonnull align 8 dereferenceable(8) %this, ptr noundef nonnull align 1 dereferenceable(1) %location, ptr noundef %reason) #5 comdat align 2 {
entry:
  %this.addr.i = alloca ptr, align 8
  %__i.addr.i = alloca i64, align 8
  %__m.addr.i = alloca i32, align 4
  %.atomictmp.i = alloca i64, align 8
  %atomic-temp.i = alloca i64, align 8
  %this.addr = alloca ptr, align 8
  %location.addr = alloca ptr, align 8
  %reason.addr = alloca ptr, align 8
  %prior = alloca i64, align 8
  store ptr %this, ptr %this.addr, align 8
  store ptr %location, ptr %location.addr, align 8
  store ptr %reason, ptr %reason.addr, align 8
  %this1 = load ptr, ptr %this.addr, align 8
  %value_ = getelementptr inbounds %"class.grpc_core::RefCount", ptr %this1, i32 0, i32 0
  store ptr %value_, ptr %this.addr.i, align 8
  store i64 1, ptr %__i.addr.i, align 8
  store i32 4, ptr %__m.addr.i, align 4
  %this1.i = load ptr, ptr %this.addr.i, align 8
  %0 = load i32, ptr %__m.addr.i, align 4
  %1 = load i64, ptr %__i.addr.i, align 8
  store i64 %1, ptr %.atomictmp.i, align 8
  switch i32 %0, label %monotonic.i [
    i32 1, label %acquire.i
    i32 2, label %acquire.i
    i32 3, label %release.i
    i32 4, label %acqrel.i
    i32 5, label %seqcst.i
  ]

monotonic.i:                                      ; preds = %entry
  %2 = load i64, ptr %.atomictmp.i, align 8
  %3 = atomicrmw sub ptr %this1.i, i64 %2 monotonic, align 8
  store i64 %3, ptr %atomic-temp.i, align 8
  br label %_ZNSt13__atomic_baseIlE9fetch_subElSt12memory_order.exit

acquire.i:                                        ; preds = %entry, %entry
  %4 = load i64, ptr %.atomictmp.i, align 8
  %5 = atomicrmw sub ptr %this1.i, i64 %4 acquire, align 8
  store i64 %5, ptr %atomic-temp.i, align 8
  br label %_ZNSt13__atomic_baseIlE9fetch_subElSt12memory_order.exit

release.i:                                        ; preds = %entry
  %6 = load i64, ptr %.atomictmp.i, align 8
  %7 = atomicrmw sub ptr %this1.i, i64 %6 release, align 8
  store i64 %7, ptr %atomic-temp.i, align 8
  br label %_ZNSt13__atomic_baseIlE9fetch_subElSt12memory_order.exit

acqrel.i:                                         ; preds = %entry
  %8 = load i64, ptr %.atomictmp.i, align 8
  %9 = atomicrmw sub ptr %this1.i, i64 %8 acq_rel, align 8
  store i64 %9, ptr %atomic-temp.i, align 8
  br label %_ZNSt13__atomic_baseIlE9fetch_subElSt12memory_order.exit

seqcst.i:                                         ; preds = %entry
  %10 = load i64, ptr %.atomictmp.i, align 8
  %11 = atomicrmw sub ptr %this1.i, i64 %10 seq_cst, align 8
  store i64 %11, ptr %atomic-temp.i, align 8
  br label %_ZNSt13__atomic_baseIlE9fetch_subElSt12memory_order.exit

_ZNSt13__atomic_baseIlE9fetch_subElSt12memory_order.exit: ; preds = %seqcst.i, %acqrel.i, %release.i, %acquire.i, %monotonic.i
  %12 = load i64, ptr %atomic-temp.i, align 8
  store i64 %12, ptr %prior, align 8
  %13 = load i64, ptr %prior, align 8
  %cmp = icmp eq i64 %13, 1
  ret i1 %cmp
}

; Function Attrs: mustprogress nounwind uwtable
define internal noundef ptr @_ZSt10__exchangeIPN9grpc_core12_GLOBAL__N_15RlsLbERS3_ET_RS5_OT0_(ptr noundef nonnull align 8 dereferenceable(8) %__obj, ptr noundef nonnull align 8 dereferenceable(8) %__new_val) #5 {
entry:
  %__obj.addr = alloca ptr, align 8
  %__new_val.addr = alloca ptr, align 8
  %__old_val = alloca ptr, align 8
  store ptr %__obj, ptr %__obj.addr, align 8
  store ptr %__new_val, ptr %__new_val.addr, align 8
  %0 = load ptr, ptr %__obj.addr, align 8
  %1 = load ptr, ptr %0, align 8
  store ptr %1, ptr %__old_val, align 8
  %2 = load ptr, ptr %__new_val.addr, align 8
  %3 = load ptr, ptr %2, align 8
  %4 = load ptr, ptr %__obj.addr, align 8
  store ptr %3, ptr %4, align 8
  %5 = load ptr, ptr %__old_val, align 8
  ret ptr %5
}

; Function Attrs: noreturn nounwind uwtable
define linkonce_odr hidden void @__clang_call_terminate(ptr noundef %0) #8 comdat {
  %2 = call ptr @__cxa_begin_catch(ptr %0) #3
  call void @_ZSt9terminatev() #18
  unreachable
}

; Function Attrs: mustprogress uwtable
define linkonce_odr void @_ZN9grpc_core20InternallyRefCountedINS_19LoadBalancingPolicyENS_11UnrefDeleteEE5UnrefEv(ptr noundef nonnull align 8 dereferenceable(16) %this) #4 comdat align 2 {
entry:
  %this.addr = alloca ptr, align 8
  store ptr %this, ptr %this.addr, align 8
  %this1 = load ptr, ptr %this.addr, align 8
  %refs_ = getelementptr inbounds %"class.grpc_core::InternallyRefCounted", ptr %this1, i32 0, i32 1
  %call = call noundef zeroext i1 @_ZN9grpc_core8RefCount5UnrefEv(ptr noundef nonnull align 8 dereferenceable(8) %refs_)
  br i1 %call, label %if.then, label %if.end

if.then:                                          ; preds = %entry
  call void @_ZNK9grpc_core11UnrefDeleteclINS_19LoadBalancingPolicyEEEvPT_(ptr noundef nonnull align 1 dereferenceable(1) %this1, ptr noundef %this1)
  br label %if.end

if.end:                                           ; preds = %if.then, %entry
  ret void
}

; Function Attrs: mustprogress uwtable
define linkonce_odr void @_ZN9grpc_core20InternallyRefCountedINS_19LoadBalancingPolicyENS_11UnrefDeleteEE5UnrefERKNS_13DebugLocationEPKc(ptr noundef nonnull align 8 dereferenceable(16) %this, ptr noundef nonnull align 1 dereferenceable(1) %location, ptr noundef %reason) #4 comdat align 2 {
entry:
  %this.addr = alloca ptr, align 8
  %location.addr = alloca ptr, align 8
  %reason.addr = alloca ptr, align 8
  store ptr %this, ptr %this.addr, align 8
  store ptr %location, ptr %location.addr, align 8
  store ptr %reason, ptr %reason.addr, align 8
  %this1 = load ptr, ptr %this.addr, align 8
  %refs_ = getelementptr inbounds %"class.grpc_core::InternallyRefCounted", ptr %this1, i32 0, i32 1
  %0 = load ptr, ptr %location.addr, align 8
  %1 = load ptr, ptr %reason.addr, align 8
  %call = call noundef zeroext i1 @_ZN9grpc_core8RefCount5UnrefERKNS_13DebugLocationEPKc(ptr noundef nonnull align 8 dereferenceable(8) %refs_, ptr noundef nonnull align 1 dereferenceable(1) %0, ptr noundef %1)
  br i1 %call, label %if.then, label %if.end

if.then:                                          ; preds = %entry
  call void @_ZNK9grpc_core11UnrefDeleteclINS_19LoadBalancingPolicyEEEvPT_(ptr noundef nonnull align 1 dereferenceable(1) %this1, ptr noundef %this1)
  br label %if.end

if.end:                                           ; preds = %if.then, %entry
  ret void
}

; Function Attrs: mustprogress nounwind uwtable
define internal noundef ptr @_ZSt8exchangeIPN9grpc_core12_GLOBAL__N_15RlsLbERS3_ET_RS5_OT0_(ptr noundef nonnull align 8 dereferenceable(8) %__obj, ptr noundef nonnull align 8 dereferenceable(8) %__new_val) #5 personality ptr @__gxx_personality_v0 {
entry:
  %__obj.addr = alloca ptr, align 8
  %__new_val.addr = alloca ptr, align 8
  store ptr %__obj, ptr %__obj.addr, align 8
  store ptr %__new_val, ptr %__new_val.addr, align 8
  %0 = load ptr, ptr %__obj.addr, align 8
  %1 = load ptr, ptr %__new_val.addr, align 8
  %call = invoke noundef ptr @_ZSt10__exchangeIPN9grpc_core12_GLOBAL__N_15RlsLbERS3_ET_RS5_OT0_(ptr noundef nonnull align 8 dereferenceable(8) %0, ptr noundef nonnull align 8 dereferenceable(8) %1)
          to label %invoke.cont unwind label %terminate.lpad

invoke.cont:                                      ; preds = %entry
  ret ptr %call

terminate.lpad:                                   ; preds = %entry
  %2 = landingpad { ptr, i32 }
          catch ptr null
  %3 = extractvalue { ptr, i32 } %2, 0
  call void @__clang_call_terminate(ptr %3) #18
  unreachable
}

; Function Attrs: mustprogress nounwind uwtable
define internal void @_ZN9grpc_core13RefCountedPtrINS_12_GLOBAL__N_15RlsLbEED2Ev(ptr noundef nonnull align 8 dereferenceable(8) %this) unnamed_addr #5 align 2 personality ptr @__gxx_personality_v0 {
entry:
  %this.addr = alloca ptr, align 8
  store ptr %this, ptr %this.addr, align 8
  %this1 = load ptr, ptr %this.addr, align 8
  %value_ = getelementptr inbounds %"class.grpc_core::RefCountedPtr.454", ptr %this1, i32 0, i32 0
  %0 = load ptr, ptr %value_, align 8
  %cmp = icmp ne ptr %0, null
  br i1 %cmp, label %if.then, label %if.end

if.then:                                          ; preds = %entry
  %value_2 = getelementptr inbounds %"class.grpc_core::RefCountedPtr.454", ptr %this1, i32 0, i32 0
  %1 = load ptr, ptr %value_2, align 8
  invoke void @_ZN9grpc_core20InternallyRefCountedINS_19LoadBalancingPolicyENS_11UnrefDeleteEE5UnrefEv(ptr noundef nonnull align 8 dereferenceable(16) %1)
          to label %invoke.cont unwind label %terminate.lpad

invoke.cont:                                      ; preds = %if.then
  br label %if.end

if.end:                                           ; preds = %invoke.cont, %entry
  ret void

terminate.lpad:                                   ; preds = %if.then
  %2 = landingpad { ptr, i32 }
          catch ptr null
  %3 = extractvalue { ptr, i32 } %2, 0
  call void @__clang_call_terminate(ptr %3) #18
  unreachable
}

; Function Attrs: mustprogress uwtable
define internal void @_ZN9grpc_core13RefCountedPtrINS_12_GLOBAL__N_15RlsLbEE5resetERKNS_13DebugLocationEPKcPS2_(ptr noundef nonnull align 8 dereferenceable(8) %this, ptr noundef nonnull align 1 dereferenceable(1) %location, ptr noundef %reason, ptr noundef %value) #4 align 2 {
entry:
  %this.addr = alloca ptr, align 8
  %location.addr = alloca ptr, align 8
  %reason.addr = alloca ptr, align 8
  %value.addr = alloca ptr, align 8
  %old_value = alloca ptr, align 8
  store ptr %this, ptr %this.addr, align 8
  store ptr %location, ptr %location.addr, align 8
  store ptr %reason, ptr %reason.addr, align 8
  store ptr %value, ptr %value.addr, align 8
  %this1 = load ptr, ptr %this.addr, align 8
  %value_ = getelementptr inbounds %"class.grpc_core::RefCountedPtr.454", ptr %this1, i32 0, i32 0
  %call = call noundef ptr @_ZSt8exchangeIPN9grpc_core12_GLOBAL__N_15RlsLbERS3_ET_RS5_OT0_(ptr noundef nonnull align 8 dereferenceable(8) %value_, ptr noundef nonnull align 8 dereferenceable(8) %value.addr) #3
  store ptr %call, ptr %old_value, align 8
  %0 = load ptr, ptr %old_value, align 8
  %cmp = icmp ne ptr %0, null
  br i1 %cmp, label %if.then, label %if.end

if.then:                                          ; preds = %entry
  %1 = load ptr, ptr %old_value, align 8
  %2 = load ptr, ptr %location.addr, align 8
  %3 = load ptr, ptr %reason.addr, align 8
  call void @_ZN9grpc_core20InternallyRefCountedINS_19LoadBalancingPolicyENS_11UnrefDeleteEE5UnrefERKNS_13DebugLocationEPKc(ptr noundef nonnull align 8 dereferenceable(16) %1, ptr noundef nonnull align 1 dereferenceable(1) %2, ptr noundef %3)
  br label %if.end

if.end:                                           ; preds = %if.then, %entry
  ret void
}

; Function Attrs: mustprogress nounwind uwtable
define linkonce_odr void @_ZN9grpc_core13DebugLocationC2EPKci(ptr noundef nonnull align 1 dereferenceable(1) %this, ptr noundef %0, i32 noundef %1) unnamed_addr #5 comdat align 2 {
entry:
  %this.addr = alloca ptr, align 8
  %.addr = alloca ptr, align 8
  %.addr1 = alloca i32, align 4
  store ptr %this, ptr %this.addr, align 8
  store ptr %0, ptr %.addr, align 8
  store i32 %1, ptr %.addr1, align 4
  ret void
}

; Function Attrs: mustprogress nounwind uwtable
define internal noundef ptr @_ZNK9grpc_core13RefCountedPtrINS_12_GLOBAL__N_15RlsLbEEptEv(ptr noundef nonnull align 8 dereferenceable(8) %this) #5 align 2 {
entry:
  %this.addr = alloca ptr, align 8
  store ptr %this, ptr %this.addr, align 8
  %this1 = load ptr, ptr %this.addr, align 8
  %value_ = getelementptr inbounds %"class.grpc_core::RefCountedPtr.454", ptr %this1, i32 0, i32 0
  %0 = load ptr, ptr %value_, align 8
  ret ptr %0
}

; Function Attrs: mustprogress nounwind uwtable
define internal void @_ZN9grpc_core13RefCountedPtrINS_12_GLOBAL__N_15RlsLbEEC2IS2_EEPT_(ptr noundef nonnull align 8 dereferenceable(8) %this, ptr noundef %value) unnamed_addr #5 align 2 {
entry:
  %this.addr = alloca ptr, align 8
  %value.addr = alloca ptr, align 8
  store ptr %this, ptr %this.addr, align 8
  store ptr %value, ptr %value.addr, align 8
  %this1 = load ptr, ptr %this.addr, align 8
  %value_ = getelementptr inbounds %"class.grpc_core::RefCountedPtr.454", ptr %this1, i32 0, i32 0
  %0 = load ptr, ptr %value.addr, align 8
  store ptr %0, ptr %value_, align 8
  ret void
}

; Function Attrs: mustprogress uwtable
define internal void @"_ZZN9grpc_core12_GLOBAL__N_15RlsLb20UpdatePickerCallbackEPvN4absl12lts_202308026StatusEENK3$_0clEv"(ptr noundef nonnull align 8 dereferenceable(8) %this) #4 align 2 personality ptr @__gxx_personality_v0 {
entry:
  %this.addr = alloca ptr, align 8
  %lb_policy = alloca %"class.grpc_core::RefCountedPtr.454", align 8
  %exn.slot = alloca ptr, align 8
  %ehselector.slot = alloca i32, align 4
  %ref.tmp = alloca %"class.grpc_core::DebugLocation", align 1
  store ptr %this, ptr %this.addr, align 8
  %this1 = load ptr, ptr %this.addr, align 8
  %0 = getelementptr inbounds %class.anon.671, ptr %this1, i32 0, i32 0
  %1 = load ptr, ptr %0, align 8
  call void @_ZN9grpc_core13RefCountedPtrINS_12_GLOBAL__N_15RlsLbEEC2IS2_EEPT_(ptr noundef nonnull align 8 dereferenceable(8) %lb_policy, ptr noundef %1)
  %call = call noundef ptr @_ZNK9grpc_core13RefCountedPtrINS_12_GLOBAL__N_15RlsLbEEptEv(ptr noundef nonnull align 8 dereferenceable(8) %lb_policy)
  invoke void @_ZN9grpc_core12_GLOBAL__N_15RlsLb18UpdatePickerLockedEv(ptr noundef nonnull align 8 dereferenceable(360) %call)
          to label %invoke.cont unwind label %lpad

invoke.cont:                                      ; preds = %entry
  invoke void @_ZN9grpc_core13DebugLocationC2EPKci(ptr noundef nonnull align 1 dereferenceable(1) %ref.tmp, ptr noundef @.str.90, i32 noundef 2062)
          to label %invoke.cont2 unwind label %lpad

invoke.cont2:                                     ; preds = %invoke.cont
  invoke void @_ZN9grpc_core13RefCountedPtrINS_12_GLOBAL__N_15RlsLbEE5resetERKNS_13DebugLocationEPKcPS2_(ptr noundef nonnull align 8 dereferenceable(8) %lb_policy, ptr noundef nonnull align 1 dereferenceable(1) %ref.tmp, ptr noundef @.str.123, ptr noundef null)
          to label %invoke.cont3 unwind label %lpad

invoke.cont3:                                     ; preds = %invoke.cont2
  call void @_ZN9grpc_core13RefCountedPtrINS_12_GLOBAL__N_15RlsLbEED2Ev(ptr noundef nonnull align 8 dereferenceable(8) %lb_policy) #3
  ret void

lpad:                                             ; preds = %invoke.cont2, %invoke.cont, %entry
  %2 = landingpad { ptr, i32 }
          cleanup
  %3 = extractvalue { ptr, i32 } %2, 0
  store ptr %3, ptr %exn.slot, align 8
  %4 = extractvalue { ptr, i32 } %2, 1
  store i32 %4, ptr %ehselector.slot, align 4
  call void @_ZN9grpc_core13RefCountedPtrINS_12_GLOBAL__N_15RlsLbEED2Ev(ptr noundef nonnull align 8 dereferenceable(8) %lb_policy) #3
  br label %eh.resume

eh.resume:                                        ; preds = %lpad
  %exn = load ptr, ptr %exn.slot, align 8
  %sel = load i32, ptr %ehselector.slot, align 4
  %lpad.val = insertvalue { ptr, i32 } poison, ptr %exn, 0
  %lpad.val4 = insertvalue { ptr, i32 } %lpad.val, i32 %sel, 1
  resume { ptr, i32 } %lpad.val4
}

; Function Attrs: mustprogress nounwind uwtable
define linkonce_odr noundef ptr @_ZNKSt9_Any_data9_M_accessEv(ptr noundef nonnull align 8 dereferenceable(16) %this) #5 comdat align 2 {
entry:
  %this.addr = alloca ptr, align 8
  store ptr %this, ptr %this.addr, align 8
  %this1 = load ptr, ptr %this.addr, align 8
  %arrayidx = getelementptr inbounds [16 x i8], ptr %this1, i64 0, i64 0
  ret ptr %arrayidx
}

; Function Attrs: mustprogress uwtable
define internal void @"_ZSt13__invoke_implIvRZN9grpc_core12_GLOBAL__N_15RlsLb20UpdatePickerCallbackEPvN4absl12lts_202308026StatusEE3$_0JEET_St14__invoke_otherOT0_DpOT1_"(ptr noundef nonnull align 8 dereferenceable(8) %__f) #4 {
entry:
  %__f.addr = alloca ptr, align 8
  store ptr %__f, ptr %__f.addr, align 8
  %0 = load ptr, ptr %__f.addr, align 8
  call void @"_ZZN9grpc_core12_GLOBAL__N_15RlsLb20UpdatePickerCallbackEPvN4absl12lts_202308026StatusEENK3$_0clEv"(ptr noundef nonnull align 8 dereferenceable(8) %0)
  ret void
}

; Function Attrs: mustprogress nounwind uwtable
define internal noundef nonnull align 8 dereferenceable(8) ptr @"_ZNKSt9_Any_data9_M_accessIZN9grpc_core12_GLOBAL__N_15RlsLb20UpdatePickerCallbackEPvN4absl12lts_202308026StatusEE3$_0EERKT_v"(ptr noundef nonnull align 8 dereferenceable(16) %this) #5 align 2 {
entry:
  %this.addr = alloca ptr, align 8
  store ptr %this, ptr %this.addr, align 8
  %this1 = load ptr, ptr %this.addr, align 8
  %call = call noundef ptr @_ZNKSt9_Any_data9_M_accessEv(ptr noundef nonnull align 8 dereferenceable(16) %this1) #3
  ret ptr %call
}

; Function Attrs: mustprogress uwtable
define internal void @"_ZSt10__invoke_rIvRZN9grpc_core12_GLOBAL__N_15RlsLb20UpdatePickerCallbackEPvN4absl12lts_202308026StatusEE3$_0JEENSt9enable_ifIX16is_invocable_r_vIT_T0_DpT1_EESA_E4typeEOSB_DpOSC_"(ptr noundef nonnull align 8 dereferenceable(8) %__fn) #4 {
entry:
  %__fn.addr = alloca ptr, align 8
  store ptr %__fn, ptr %__fn.addr, align 8
  %0 = load ptr, ptr %__fn.addr, align 8
  call void @"_ZSt13__invoke_implIvRZN9grpc_core12_GLOBAL__N_15RlsLb20UpdatePickerCallbackEPvN4absl12lts_202308026StatusEE3$_0JEET_St14__invoke_otherOT0_DpOT1_"(ptr noundef nonnull align 8 dereferenceable(8) %0)
  ret void
}

; Function Attrs: mustprogress nounwind uwtable
define internal noundef ptr @"_ZNSt14_Function_base13_Base_managerIZN9grpc_core12_GLOBAL__N_15RlsLb20UpdatePickerCallbackEPvN4absl12lts_202308026StatusEE3$_0E14_M_get_pointerERKSt9_Any_data"(ptr noundef nonnull align 8 dereferenceable(16) %__source) #5 align 2 {
entry:
  %__source.addr = alloca ptr, align 8
  %__f = alloca ptr, align 8
  store ptr %__source, ptr %__source.addr, align 8
  %0 = load ptr, ptr %__source.addr, align 8
  %call = call noundef nonnull align 8 dereferenceable(8) ptr @"_ZNKSt9_Any_data9_M_accessIZN9grpc_core12_GLOBAL__N_15RlsLb20UpdatePickerCallbackEPvN4absl12lts_202308026StatusEE3$_0EERKT_v"(ptr noundef nonnull align 8 dereferenceable(16) %0) #3
  store ptr %call, ptr %__f, align 8
  %1 = load ptr, ptr %__f, align 8
  ret ptr %1
}

; Function Attrs: mustprogress uwtable
define internal void @"_ZNSt17_Function_handlerIFvvEZN9grpc_core12_GLOBAL__N_15RlsLb20UpdatePickerCallbackEPvN4absl12lts_202308026StatusEE3$_0E9_M_invokeERKSt9_Any_data"(ptr noundef nonnull align 8 dereferenceable(16) %__functor) #4 align 2 {
entry:
  %__functor.addr = alloca ptr, align 8
  store ptr %__functor, ptr %__functor.addr, align 8
  %0 = load ptr, ptr %__functor.addr, align 8
  %call = call noundef ptr @"_ZNSt14_Function_base13_Base_managerIZN9grpc_core12_GLOBAL__N_15RlsLb20UpdatePickerCallbackEPvN4absl12lts_202308026StatusEE3$_0E14_M_get_pointerERKSt9_Any_data"(ptr noundef nonnull align 8 dereferenceable(16) %0) #3
  call void @"_ZSt10__invoke_rIvRZN9grpc_core12_GLOBAL__N_15RlsLb20UpdatePickerCallbackEPvN4absl12lts_202308026StatusEE3$_0JEENSt9enable_ifIX16is_invocable_r_vIT_T0_DpT1_EESA_E4typeEOSB_DpOSC_"(ptr noundef nonnull align 8 dereferenceable(8) %call)
  ret void
}