; Function Attrs: mustprogress uwtable
define internal void @"_ZNSt17_Function_handlerIFvvEZN9grpc_core12_GLOBAL__N_15RlsLb20UpdatePickerCallbackEPvN4absl12lts_202308026StatusEE3$_0E9_M_invokeERKSt9_Any_data"(ptr nocapture noundef nonnull readonly align 8 dereferenceable(16) %__functor) #3 align 2 personality ptr @__gxx_personality_v0 {
entry:
  %call.val = load ptr, ptr %__functor, align 8
  invoke fastcc void @_ZN9grpc_core12_GLOBAL__N_15RlsLb18UpdatePickerLockedEv(ptr noundef nonnull align 8 dereferenceable(360) %call.val)
          to label %if.then.i.i.i.i unwind label %lpad.i.i.i

if.then.i.i.i.i:                                  ; preds = %entry
  %refs_.i.i.i.i.i = getelementptr inbounds i8, ptr %call.val, i64 8
  %0 = atomicrmw sub ptr %refs_.i.i.i.i.i, i64 1 acq_rel, align 8
  %cmp.i.i.i.i.i.i = icmp eq i64 %0, 1
  br i1 %cmp.i.i.i.i.i.i, label %if.then.i.i.i.i.i, label %"_ZSt10__invoke_rIvRZN9grpc_core12_GLOBAL__N_15RlsLb20UpdatePickerCallbackEPvN4absl12lts_202308026StatusEE3$_0JEENSt9enable_ifIX16is_invocable_r_vIT_T0_DpT1_EESA_E4typeEOSB_DpOSC_.exit"

if.then.i.i.i.i.i:                                ; preds = %if.then.i.i.i.i
  %vtable.i.i.i.i.i.i = load ptr, ptr %call.val, align 8
  %vfn.i.i.i.i.i.i = getelementptr inbounds i8, ptr %vtable.i.i.i.i.i.i, i64 16
  %1 = load ptr, ptr %vfn.i.i.i.i.i.i, align 8
  tail call void %1(ptr noundef nonnull align 8 dereferenceable(56) %call.val) #31
  br label %"_ZSt10__invoke_rIvRZN9grpc_core12_GLOBAL__N_15RlsLb20UpdatePickerCallbackEPvN4absl12lts_202308026StatusEE3$_0JEENSt9enable_ifIX16is_invocable_r_vIT_T0_DpT1_EESA_E4typeEOSB_DpOSC_.exit"

lpad.i.i.i:                                       ; preds = %entry
  %2 = landingpad { ptr, i32 }
          cleanup
  %cmp.not.i10.i.i.i = icmp eq ptr %call.val, null
  br i1 %cmp.not.i10.i.i.i, label %_ZN9grpc_core13RefCountedPtrINS_12_GLOBAL__N_15RlsLbEED2Ev.exit17.i.i.i, label %if.then.i11.i.i.i

if.then.i11.i.i.i:                                ; preds = %lpad.i.i.i
  %refs_.i.i12.i.i.i = getelementptr inbounds i8, ptr %call.val, i64 8
  %3 = atomicrmw sub ptr %refs_.i.i12.i.i.i, i64 1 acq_rel, align 8
  %cmp.i.i.i13.i.i.i = icmp eq i64 %3, 1
  br i1 %cmp.i.i.i13.i.i.i, label %if.then.i.i14.i.i.i, label %_ZN9grpc_core13RefCountedPtrINS_12_GLOBAL__N_15RlsLbEED2Ev.exit17.i.i.i

if.then.i.i14.i.i.i:                              ; preds = %if.then.i11.i.i.i
  %vtable.i.i.i15.i.i.i = load ptr, ptr %call.val, align 8
  %vfn.i.i.i16.i.i.i = getelementptr inbounds i8, ptr %vtable.i.i.i15.i.i.i, i64 16
  %4 = load ptr, ptr %vfn.i.i.i16.i.i.i, align 8
  tail call void %4(ptr noundef nonnull align 8 dereferenceable(56) %call.val) #31
  br label %_ZN9grpc_core13RefCountedPtrINS_12_GLOBAL__N_15RlsLbEED2Ev.exit17.i.i.i

_ZN9grpc_core13RefCountedPtrINS_12_GLOBAL__N_15RlsLbEED2Ev.exit17.i.i.i: ; preds = %if.then.i.i14.i.i.i, %if.then.i11.i.i.i, %lpad.i.i.i
  resume { ptr, i32 } %2

"_ZSt10__invoke_rIvRZN9grpc_core12_GLOBAL__N_15RlsLb20UpdatePickerCallbackEPvN4absl12lts_202308026StatusEE3$_0JEENSt9enable_ifIX16is_invocable_r_vIT_T0_DpT1_EESA_E4typeEOSB_DpOSC_.exit": ; preds = %if.then.i.i.i.i, %if.then.i.i.i.i.i
  ret void
}